target datalayout = "e-m:e-p270:32:32-p271:32:32-p272:64:64-i64:64-i128:128-f80:128-n8:16:32:64-S128"
target triple = "x86_64-pc-linux-gnu"

%class.Sample = type { ptr, ptr, ptr, ptr, ptr, i8, float, float, float, float, float, float, float, float, float, float, float, float, float, i32, i8, i8, i8, ptr, [9 x ptr], ptr, %class.SampleDebugDraw }
%class.SampleDebugDraw = type { %class.DebugDrawGL }
%class.DebugDrawGL = type { %struct.duDebugDraw }
%struct.duDebugDraw = type { ptr }

@.str.5 = private unnamed_addr constant [13 x i8] c"Test Navmesh\00", align 1
@.str.6 = private unnamed_addr constant [14 x i8] c"Prune Navmesh\00", align 1
@.str.7 = private unnamed_addr constant [28 x i8] c"Create Off-Mesh Connections\00", align 1
@.str.8 = private unnamed_addr constant [22 x i8] c"Create Convex Volumes\00", align 1
@.str.9 = private unnamed_addr constant [14 x i8] c"Create Crowds\00", align 1

; Function Attrs: mustprogress uwtable
define dso_local void @_ZN15Sample_SoloMesh11handleToolsEv(ptr noundef nonnull align 8 dereferenceable(356) %0) unnamed_addr #0 align 2 personality ptr @__gxx_personality_v0 {
  %2 = alloca ptr, align 8
  %3 = alloca i32, align 4
  %4 = alloca ptr, align 8
  %5 = alloca i32, align 4
  store ptr %0, ptr %2, align 8
  %6 = load ptr, ptr %2, align 8
  %7 = getelementptr inbounds %class.Sample, ptr %6, i32 0, i32 23
  %8 = load ptr, ptr %7, align 8
  %9 = icmp ne ptr %8, null
  br i1 %9, label %11, label %10

10:                                               ; preds = %1
  br label %18

11:                                               ; preds = %1
  %12 = getelementptr inbounds %class.Sample, ptr %6, i32 0, i32 23
  %13 = load ptr, ptr %12, align 8
  %14 = load ptr, ptr %13, align 8
  %15 = getelementptr inbounds ptr, ptr %14, i64 2
  %16 = load ptr, ptr %15, align 8
  %17 = call noundef i32 %16(ptr noundef nonnull align 8 dereferenceable(8) %13)
  br label %18

18:                                               ; preds = %11, %10
  %19 = phi i32 [ 0, %10 ], [ %17, %11 ]
  store i32 %19, ptr %3, align 4
  %20 = load i32, ptr %3, align 4
  %21 = icmp eq i32 %20, 4
  %22 = call noundef zeroext i1 @_Z10imguiCheckPKcbb(ptr noundef @.str.5, i1 noundef zeroext %21, i1 noundef zeroext true)
  br i1 %22, label %23, label %30

23:                                               ; preds = %18
  %24 = call noalias noundef nonnull ptr @_Znwm(i64 noundef 33408) #9
  invoke void @_ZN17NavMeshTesterToolC1Ev(ptr noundef nonnull align 8 dereferenceable(33408) %24)
          to label %25 unwind label %26

25:                                               ; preds = %23
  call void @_ZN6Sample7setToolEP10SampleTool(ptr noundef nonnull align 8 dereferenceable(200) %6, ptr noundef %24)
  br label %30

26:                                               ; preds = %23
  %27 = landingpad { ptr, i32 }
          cleanup
  %28 = extractvalue { ptr, i32 } %27, 0
  store ptr %28, ptr %4, align 8
  %29 = extractvalue { ptr, i32 } %27, 1
  store i32 %29, ptr %5, align 4
  call void @_ZdlPv(ptr noundef %24) #10
  br label %85

30:                                               ; preds = %25, %18
  %31 = load i32, ptr %3, align 4
  %32 = icmp eq i32 %31, 5
  %33 = call noundef zeroext i1 @_Z10imguiCheckPKcbb(ptr noundef @.str.6, i1 noundef zeroext %32, i1 noundef zeroext true)
  br i1 %33, label %34, label %41

34:                                               ; preds = %30
  %35 = call noalias noundef nonnull ptr @_Znwm(i64 noundef 40) #9
  invoke void @_ZN16NavMeshPruneToolC1Ev(ptr noundef nonnull align 8 dereferenceable(37) %35)
          to label %36 unwind label %37

36:                                               ; preds = %34
  call void @_ZN6Sample7setToolEP10SampleTool(ptr noundef nonnull align 8 dereferenceable(200) %6, ptr noundef %35)
  br label %41

37:                                               ; preds = %34
  %38 = landingpad { ptr, i32 }
          cleanup
  %39 = extractvalue { ptr, i32 } %38, 0
  store ptr %39, ptr %4, align 8
  %40 = extractvalue { ptr, i32 } %38, 1
  store i32 %40, ptr %5, align 4
  call void @_ZdlPv(ptr noundef %35) #10
  br label %85

41:                                               ; preds = %36, %30
  %42 = load i32, ptr %3, align 4
  %43 = icmp eq i32 %42, 6
  %44 = call noundef zeroext i1 @_Z10imguiCheckPKcbb(ptr noundef @.str.7, i1 noundef zeroext %43, i1 noundef zeroext true)
  br i1 %44, label %45, label %52

45:                                               ; preds = %41
  %46 = call noalias noundef nonnull ptr @_Znwm(i64 noundef 32) #9
  invoke void @_ZN21OffMeshConnectionToolC1Ev(ptr noundef nonnull align 8 dereferenceable(31) %46)
          to label %47 unwind label %48

47:                                               ; preds = %45
  call void @_ZN6Sample7setToolEP10SampleTool(ptr noundef nonnull align 8 dereferenceable(200) %6, ptr noundef %46)
  br label %52

48:                                               ; preds = %45
  %49 = landingpad { ptr, i32 }
          cleanup
  %50 = extractvalue { ptr, i32 } %49, 0
  store ptr %50, ptr %4, align 8
  %51 = extractvalue { ptr, i32 } %49, 1
  store i32 %51, ptr %5, align 4
  call void @_ZdlPv(ptr noundef %46) #10
  br label %85

52:                                               ; preds = %47, %41
  %53 = load i32, ptr %3, align 4
  %54 = icmp eq i32 %53, 7
  %55 = call noundef zeroext i1 @_Z10imguiCheckPKcbb(ptr noundef @.str.8, i1 noundef zeroext %54, i1 noundef zeroext true)
  br i1 %55, label %56, label %63

56:                                               ; preds = %52
  %57 = call noalias noundef nonnull ptr @_Znwm(i64 noundef 232) #9
  invoke void @_ZN16ConvexVolumeToolC1Ev(ptr noundef nonnull align 8 dereferenceable(232) %57)
          to label %58 unwind label %59

58:                                               ; preds = %56
  call void @_ZN6Sample7setToolEP10SampleTool(ptr noundef nonnull align 8 dereferenceable(200) %6, ptr noundef %57)
  br label %63

59:                                               ; preds = %56
  %60 = landingpad { ptr, i32 }
          cleanup
  %61 = extractvalue { ptr, i32 } %60, 0
  store ptr %61, ptr %4, align 8
  %62 = extractvalue { ptr, i32 } %60, 1
  store i32 %62, ptr %5, align 4
  call void @_ZdlPv(ptr noundef %57) #10
  br label %85

63:                                               ; preds = %58, %52
  %64 = load i32, ptr %3, align 4
  %65 = icmp eq i32 %64, 8
  %66 = call noundef zeroext i1 @_Z10imguiCheckPKcbb(ptr noundef @.str.9, i1 noundef zeroext %65, i1 noundef zeroext true)
  br i1 %66, label %67, label %74

67:                                               ; preds = %63
  %68 = call noalias noundef nonnull ptr @_Znwm(i64 noundef 32) #9
  invoke void @_ZN9CrowdToolC1Ev(ptr noundef nonnull align 8 dereferenceable(28) %68)
          to label %69 unwind label %70

69:                                               ; preds = %67
  call void @_ZN6Sample7setToolEP10SampleTool(ptr noundef nonnull align 8 dereferenceable(200) %6, ptr noundef %68)
  br label %74

70:                                               ; preds = %67
  %71 = landingpad { ptr, i32 }
          cleanup
  %72 = extractvalue { ptr, i32 } %71, 0
  store ptr %72, ptr %4, align 8
  %73 = extractvalue { ptr, i32 } %71, 1
  store i32 %73, ptr %5, align 4
  call void @_ZdlPv(ptr noundef %68) #10
  br label %85

74:                                               ; preds = %69, %63
  call void @_Z18imguiSeparatorLinev()
  call void @_Z11imguiIndentv()
  %75 = getelementptr inbounds %class.Sample, ptr %6, i32 0, i32 23
  %76 = load ptr, ptr %75, align 8
  %77 = icmp ne ptr %76, null
  br i1 %77, label %78, label %84

78:                                               ; preds = %74
  %79 = getelementptr inbounds %class.Sample, ptr %6, i32 0, i32 23
  %80 = load ptr, ptr %79, align 8
  %81 = load ptr, ptr %80, align 8
  %82 = getelementptr inbounds ptr, ptr %81, i64 5
  %83 = load ptr, ptr %82, align 8
  call void %83(ptr noundef nonnull align 8 dereferenceable(8) %80)
  br label %84

84:                                               ; preds = %78, %74
  call void @_Z13imguiUnindentv()
  ret void

85:                                               ; preds = %70, %59, %48, %37, %26
  %86 = load ptr, ptr %4, align 8
  %87 = load i32, ptr %5, align 4
  %88 = insertvalue { ptr, i32 } poison, ptr %86, 0
  %89 = insertvalue { ptr, i32 } %88, i32 %87, 1
  resume { ptr, i32 } %89
}