; Function Attrs: mustprogress uwtable
define dso_local void @_ZN15Sample_SoloMesh11handleToolsEv(ptr noundef nonnull align 8 dereferenceable(356) %0) unnamed_addr #0 align 2 personality ptr @__gxx_personality_v0 {
  %2 = getelementptr inbounds i8, ptr %0, i64 104
  %3 = load ptr, ptr %2, align 8
  %.not = icmp eq ptr %3, null
  br i1 %.not, label %9, label %4

4:                                                ; preds = %1
  %5 = load ptr, ptr %3, align 8
  %6 = getelementptr inbounds i8, ptr %5, i64 16
  %7 = load ptr, ptr %6, align 8
  %8 = tail call noundef i32 %7(ptr noundef nonnull align 8 dereferenceable(8) %3)
  br label %9

9:                                                ; preds = %1, %4
  %10 = phi i32 [ %8, %4 ], [ 0, %1 ]
  %11 = icmp eq i32 %10, 4
  %12 = tail call noundef zeroext i1 @_Z10imguiCheckPKcbb(ptr noundef nonnull @.str.5, i1 noundef zeroext %11, i1 noundef zeroext true)
  br i1 %12, label %13, label %18

13:                                               ; preds = %9
  %14 = tail call noalias noundef nonnull dereferenceable(33408) ptr @_Znwm(i64 noundef 33408) #10
  invoke void @_ZN17NavMeshTesterToolC1Ev(ptr noundef nonnull align 8 dereferenceable(33408) %14)
          to label %15 unwind label %16

15:                                               ; preds = %13
  tail call void @_ZN6Sample7setToolEP10SampleTool(ptr noundef nonnull align 8 dereferenceable(200) %0, ptr noundef nonnull %14)
  br label %18

16:                                               ; preds = %13
  %17 = landingpad { ptr, i32 }
          cleanup
  br label %57

18:                                               ; preds = %15, %9
  %19 = icmp eq i32 %10, 5
  %20 = tail call noundef zeroext i1 @_Z10imguiCheckPKcbb(ptr noundef nonnull @.str.6, i1 noundef zeroext %19, i1 noundef zeroext true)
  br i1 %20, label %21, label %26

21:                                               ; preds = %18
  %22 = tail call noalias noundef nonnull dereferenceable(40) ptr @_Znwm(i64 noundef 40) #10
  invoke void @_ZN16NavMeshPruneToolC1Ev(ptr noundef nonnull align 8 dereferenceable(37) %22)
          to label %23 unwind label %24

23:                                               ; preds = %21
  tail call void @_ZN6Sample7setToolEP10SampleTool(ptr noundef nonnull align 8 dereferenceable(200) %0, ptr noundef nonnull %22)
  br label %26

24:                                               ; preds = %21
  %25 = landingpad { ptr, i32 }
          cleanup
  br label %57

26:                                               ; preds = %23, %18
  %27 = icmp eq i32 %10, 6
  %28 = tail call noundef zeroext i1 @_Z10imguiCheckPKcbb(ptr noundef nonnull @.str.7, i1 noundef zeroext %27, i1 noundef zeroext true)
  br i1 %28, label %29, label %34

29:                                               ; preds = %26
  %30 = tail call noalias noundef nonnull dereferenceable(32) ptr @_Znwm(i64 noundef 32) #10
  invoke void @_ZN21OffMeshConnectionToolC1Ev(ptr noundef nonnull align 8 dereferenceable(31) %30)
          to label %31 unwind label %32

31:                                               ; preds = %29
  tail call void @_ZN6Sample7setToolEP10SampleTool(ptr noundef nonnull align 8 dereferenceable(200) %0, ptr noundef nonnull %30)
  br label %34

32:                                               ; preds = %29
  %33 = landingpad { ptr, i32 }
          cleanup
  br label %57

34:                                               ; preds = %31, %26
  %35 = icmp eq i32 %10, 7
  %36 = tail call noundef zeroext i1 @_Z10imguiCheckPKcbb(ptr noundef nonnull @.str.8, i1 noundef zeroext %35, i1 noundef zeroext true)
  br i1 %36, label %37, label %42

37:                                               ; preds = %34
  %38 = tail call noalias noundef nonnull dereferenceable(232) ptr @_Znwm(i64 noundef 232) #10
  invoke void @_ZN16ConvexVolumeToolC1Ev(ptr noundef nonnull align 8 dereferenceable(232) %38)
          to label %39 unwind label %40

39:                                               ; preds = %37
  tail call void @_ZN6Sample7setToolEP10SampleTool(ptr noundef nonnull align 8 dereferenceable(200) %0, ptr noundef nonnull %38)
  br label %42

40:                                               ; preds = %37
  %41 = landingpad { ptr, i32 }
          cleanup
  br label %57

42:                                               ; preds = %39, %34
  %43 = icmp eq i32 %10, 8
  %44 = tail call noundef zeroext i1 @_Z10imguiCheckPKcbb(ptr noundef nonnull @.str.9, i1 noundef zeroext %43, i1 noundef zeroext true)
  br i1 %44, label %45, label %50

45:                                               ; preds = %42
  %46 = tail call noalias noundef nonnull dereferenceable(32) ptr @_Znwm(i64 noundef 32) #10
  invoke void @_ZN9CrowdToolC1Ev(ptr noundef nonnull align 8 dereferenceable(28) %46)
          to label %47 unwind label %48

47:                                               ; preds = %45
  tail call void @_ZN6Sample7setToolEP10SampleTool(ptr noundef nonnull align 8 dereferenceable(200) %0, ptr noundef nonnull %46)
  br label %50

48:                                               ; preds = %45
  %49 = landingpad { ptr, i32 }
          cleanup
  br label %57

50:                                               ; preds = %47, %42
  tail call void @_Z18imguiSeparatorLinev()
  tail call void @_Z11imguiIndentv()
  %51 = load ptr, ptr %2, align 8
  %.not11 = icmp eq ptr %51, null
  br i1 %.not11, label %56, label %52

52:                                               ; preds = %50
  %53 = load ptr, ptr %51, align 8
  %54 = getelementptr inbounds i8, ptr %53, i64 40
  %55 = load ptr, ptr %54, align 8
  tail call void %55(ptr noundef nonnull align 8 dereferenceable(8) %51)
  br label %56

56:                                               ; preds = %52, %50
  tail call void @_Z13imguiUnindentv()
  ret void

57:                                               ; preds = %48, %40, %32, %24, %16
  %.sink = phi ptr [ %46, %48 ], [ %38, %40 ], [ %30, %32 ], [ %22, %24 ], [ %14, %16 ]
  %.pn = phi { ptr, i32 } [ %49, %48 ], [ %41, %40 ], [ %33, %32 ], [ %25, %24 ], [ %17, %16 ]
  tail call void @_ZdlPv(ptr noundef nonnull %.sink) #11
  resume { ptr, i32 } %.pn
}